target datalayout = "e-m:e-p270:32:32-p271:32:32-p272:64:64-i64:64-i128:128-f80:128-n8:16:32:64-S128"
target triple = "x86_64-unknown-linux-gnu"

%struct.IDEDMA = type { ptr, %struct.QEMUIOVector, ptr }
%struct.QEMUIOVector = type { ptr, i32, %union.anon }
%union.anon = type { %struct.anon }
%struct.anon = type { i32, %struct.iovec }
%struct.iovec = type { ptr, i64 }
%struct.IDEDMAOps = type { ptr, ptr, ptr, ptr, ptr, ptr, ptr, ptr, ptr, ptr }
%struct.IDEBus = type { %struct.BusState, ptr, ptr, [2 x %struct.IDEState], ptr, i32, i32, ptr, i8, i8, ptr, i32, i8, i64, i32, %struct.PortioList, %struct.PortioList, ptr }
%struct.BusState = type { %struct.Object, ptr, ptr, ptr, i32, i8, i8, i32, %union.BusChildHead, %struct.BusStateEntry, %struct.ResettableState }
%struct.Object = type { ptr, ptr, ptr, i32, ptr }
%union.BusChildHead = type { %struct.QTailQLink }
%struct.QTailQLink = type { ptr, ptr }
%struct.BusStateEntry = type { ptr, ptr }
%struct.ResettableState = type { i32, i8, i8 }
%struct.IDEState = type { ptr, i8, i32, i32, i32, i32, i32, i32, i32, i64, i32, i32, [512 x i8], i32, [21 x i8], [41 x i8], i64, i8, i8, i32, i8, i8, i8, i8, i8, i8, i8, i8, i8, i8, i8, i8, i8, ptr, [9 x i8], %struct.unreported_events, i8, i8, i8, i8, i8, i32, i32, i32, i32, i32, i32, %struct.BlockAcctCookie, ptr, %struct.QEMUIOVector, %struct.anon.1, i64, i32, %struct.QEMUSGList, i32, ptr, ptr, ptr, ptr, i32, i32, i32, i8, ptr, i32, i8, i32, ptr, i32, i32, i8, i8, i32, i8, ptr, i32 }
%struct.unreported_events = type { i8, i8 }
%struct.BlockAcctCookie = type { i64, i64, i32 }
%struct.anon.1 = type { ptr }
%struct.QEMUSGList = type { ptr, i32, i32, i64, ptr, ptr }
%struct.PortioList = type { ptr, ptr, ptr, i32, ptr, ptr, ptr, i8 }

@.str.6 = private unnamed_addr constant [22 x i8] c"../qemu/hw/ide/core.c\00", align 1
@.str.94 = private unnamed_addr constant [38 x i8] c"s->end_transfer_func == ide_atapi_cmd\00", align 1
@__PRETTY_FUNCTION__.ide_restart_bh = private unnamed_addr constant [28 x i8] c"void ide_restart_bh(void *)\00", align 1

; Function Attrs: nounwind sspstrong uwtable
define internal ptr @ide_bus_active_if(ptr noundef %bus) #0 {
entry:
  %bus.addr = alloca ptr, align 8
  store ptr %bus, ptr %bus.addr, align 8
  %0 = load ptr, ptr %bus.addr, align 8
  %ifs = getelementptr inbounds %struct.IDEBus, ptr %0, i32 0, i32 3
  %arraydecay = getelementptr inbounds [2 x %struct.IDEState], ptr %ifs, i64 0, i64 0
  %1 = load ptr, ptr %bus.addr, align 8
  %unit = getelementptr inbounds %struct.IDEBus, ptr %1, i32 0, i32 8
  %2 = load i8, ptr %unit, align 8
  %conv = zext i8 %2 to i32
  %idx.ext = sext i32 %conv to i64
  %add.ptr = getelementptr %struct.IDEState, ptr %arraydecay, i64 %idx.ext
  ret ptr %add.ptr
}

; Function Attrs: nounwind sspstrong uwtable
define internal void @ide_restart_bh(ptr noundef %opaque) #0 {
entry:
  %opaque.addr = alloca ptr, align 8
  %bus = alloca ptr, align 8
  %s = alloca ptr, align 8
  %is_read = alloca i8, align 1
  %error_status = alloca i32, align 4
  store ptr %opaque, ptr %opaque.addr, align 8
  %0 = load ptr, ptr %opaque.addr, align 8
  store ptr %0, ptr %bus, align 8
  %1 = load ptr, ptr %bus, align 8
  %bh = getelementptr inbounds %struct.IDEBus, ptr %1, i32 0, i32 4
  %2 = load ptr, ptr %bh, align 8
  call void @qemu_bh_delete(ptr noundef %2)
  %3 = load ptr, ptr %bus, align 8
  %bh1 = getelementptr inbounds %struct.IDEBus, ptr %3, i32 0, i32 4
  store ptr null, ptr %bh1, align 8
  %4 = load ptr, ptr %bus, align 8
  %error_status2 = getelementptr inbounds %struct.IDEBus, ptr %4, i32 0, i32 11
  %5 = load i32, ptr %error_status2, align 8
  store i32 %5, ptr %error_status, align 4
  %6 = load ptr, ptr %bus, align 8
  %error_status3 = getelementptr inbounds %struct.IDEBus, ptr %6, i32 0, i32 11
  %7 = load i32, ptr %error_status3, align 8
  %cmp = icmp eq i32 %7, 0
  br i1 %cmp, label %if.then, label %if.end

if.then:                                          ; preds = %entry
  br label %if.end53

if.end:                                           ; preds = %entry
  %8 = load ptr, ptr %bus, align 8
  %call = call ptr @ide_bus_active_if(ptr noundef %8)
  store ptr %call, ptr %s, align 8
  %9 = load ptr, ptr %bus, align 8
  %error_status4 = getelementptr inbounds %struct.IDEBus, ptr %9, i32 0, i32 11
  %10 = load i32, ptr %error_status4, align 8
  %and = and i32 %10, 32
  %cmp5 = icmp ne i32 %and, 0
  %frombool = zext i1 %cmp5 to i8
  store i8 %frombool, ptr %is_read, align 1
  %11 = load ptr, ptr %bus, align 8
  %error_status6 = getelementptr inbounds %struct.IDEBus, ptr %11, i32 0, i32 11
  store i32 0, ptr %error_status6, align 8
  %12 = load i32, ptr %error_status, align 4
  %and7 = and i32 %12, 256
  %tobool = icmp ne i32 %and7, 0
  br i1 %tobool, label %if.then8, label %if.else

if.then8:                                         ; preds = %if.end
  %13 = load ptr, ptr %s, align 8
  %bus9 = getelementptr inbounds %struct.IDEState, ptr %13, i32 0, i32 0
  %14 = load ptr, ptr %bus9, align 8
  %dma = getelementptr inbounds %struct.IDEBus, ptr %14, i32 0, i32 7
  %15 = load ptr, ptr %dma, align 8
  %ops = getelementptr inbounds %struct.IDEDMA, ptr %15, i32 0, i32 0
  %16 = load ptr, ptr %ops, align 8
  %restart = getelementptr inbounds %struct.IDEDMAOps, ptr %16, i32 0, i32 5
  %17 = load ptr, ptr %restart, align 8
  %tobool10 = icmp ne ptr %17, null
  br i1 %tobool10, label %if.then11, label %if.end18

if.then11:                                        ; preds = %if.then8
  %18 = load ptr, ptr %s, align 8
  %bus12 = getelementptr inbounds %struct.IDEState, ptr %18, i32 0, i32 0
  %19 = load ptr, ptr %bus12, align 8
  %dma13 = getelementptr inbounds %struct.IDEBus, ptr %19, i32 0, i32 7
  %20 = load ptr, ptr %dma13, align 8
  %ops14 = getelementptr inbounds %struct.IDEDMA, ptr %20, i32 0, i32 0
  %21 = load ptr, ptr %ops14, align 8
  %restart15 = getelementptr inbounds %struct.IDEDMAOps, ptr %21, i32 0, i32 5
  %22 = load ptr, ptr %restart15, align 8
  %23 = load ptr, ptr %s, align 8
  %bus16 = getelementptr inbounds %struct.IDEState, ptr %23, i32 0, i32 0
  %24 = load ptr, ptr %bus16, align 8
  %dma17 = getelementptr inbounds %struct.IDEBus, ptr %24, i32 0, i32 7
  %25 = load ptr, ptr %dma17, align 8
  call void %22(ptr noundef %25)
  br label %if.end18

if.end18:                                         ; preds = %if.then11, %if.then8
  br label %if.end53

if.else:                                          ; preds = %if.end
  %26 = load i32, ptr %error_status, align 4
  %and19 = and i32 %26, 8
  %tobool20 = icmp ne i32 %and19, 0
  br i1 %tobool20, label %if.then21, label %if.else28

if.then21:                                        ; preds = %if.else
  %27 = load i32, ptr %error_status, align 4
  %and22 = and i32 %27, 128
  %tobool23 = icmp ne i32 %and22, 0
  br i1 %tobool23, label %if.then24, label %if.else25

if.then24:                                        ; preds = %if.then21
  %28 = load ptr, ptr %s, align 8
  call void @ide_restart_dma(ptr noundef %28, i32 noundef 2)
  br label %if.end27

if.else25:                                        ; preds = %if.then21
  %29 = load ptr, ptr %s, align 8
  %30 = load i8, ptr %is_read, align 1
  %tobool26 = trunc i8 %30 to i1
  %cond = select i1 %tobool26, i32 0, i32 1
  call void @ide_restart_dma(ptr noundef %29, i32 noundef %cond)
  br label %if.end27

if.end27:                                         ; preds = %if.else25, %if.then24
  br label %if.end52

if.else28:                                        ; preds = %if.else
  %31 = load i32, ptr %error_status, align 4
  %and29 = and i32 %31, 16
  %tobool30 = icmp ne i32 %and29, 0
  br i1 %tobool30, label %if.then31, label %if.else36

if.then31:                                        ; preds = %if.else28
  %32 = load i8, ptr %is_read, align 1
  %tobool32 = trunc i8 %32 to i1
  br i1 %tobool32, label %if.then33, label %if.else34

if.then33:                                        ; preds = %if.then31
  %33 = load ptr, ptr %s, align 8
  call void @ide_sector_read(ptr noundef %33)
  br label %if.end35

if.else34:                                        ; preds = %if.then31
  %34 = load ptr, ptr %s, align 8
  call void @ide_sector_write(ptr noundef %34)
  br label %if.end35

if.end35:                                         ; preds = %if.else34, %if.then33
  br label %if.end51

if.else36:                                        ; preds = %if.else28
  %35 = load i32, ptr %error_status, align 4
  %and37 = and i32 %35, 64
  %tobool38 = icmp ne i32 %and37, 0
  br i1 %tobool38, label %if.then39, label %if.else40

if.then39:                                        ; preds = %if.else36
  %36 = load ptr, ptr %s, align 8
  call void @ide_flush_cache(ptr noundef %36)
  br label %if.end50

if.else40:                                        ; preds = %if.else36
  %37 = load i32, ptr %error_status, align 4
  %and41 = and i32 %37, 248
  %cmp42 = icmp eq i32 %and41, 32
  br i1 %cmp42, label %if.then43, label %if.else48

if.then43:                                        ; preds = %if.else40
  %38 = load ptr, ptr %s, align 8
  %end_transfer_func = getelementptr inbounds %struct.IDEState, ptr %38, i32 0, i32 55
  %39 = load ptr, ptr %end_transfer_func, align 8
  %cmp44 = icmp eq ptr %39, @ide_atapi_cmd
  br i1 %cmp44, label %if.then45, label %if.else46

if.then45:                                        ; preds = %if.then43
  br label %if.end47

if.else46:                                        ; preds = %if.then43
  call void @__assert_fail(ptr noundef @.str.94, ptr noundef @.str.6, i32 noundef 2756, ptr noundef @__PRETTY_FUNCTION__.ide_restart_bh) #8
  unreachable

if.end47:                                         ; preds = %if.then45
  %40 = load ptr, ptr %s, align 8
  call void @ide_atapi_dma_restart(ptr noundef %40)
  br label %if.end49

if.else48:                                        ; preds = %if.else40
  call void @abort() #8
  unreachable

if.end49:                                         ; preds = %if.end47
  br label %if.end50

if.end50:                                         ; preds = %if.end49, %if.then39
  br label %if.end51

if.end51:                                         ; preds = %if.end50, %if.end35
  br label %if.end52

if.end52:                                         ; preds = %if.end51, %if.end27
  br label %if.end53

if.end53:                                         ; preds = %if.end52, %if.end18, %if.then
  ret void
}