; Function Attrs: nounwind sspstrong uwtable
define internal void @ide_restart_bh(ptr noundef %opaque) #0 {
entry:
  %bh = getelementptr inbounds nuw i8, ptr %opaque, i64 2104
  %0 = load ptr, ptr %bh, align 8
  tail call void @qemu_bh_delete(ptr noundef %0) #17
  store ptr null, ptr %bh, align 8
  %error_status2 = getelementptr inbounds nuw i8, ptr %opaque, i64 2144
  %1 = load i32, ptr %error_status2, align 8
  %cmp = icmp eq i32 %1, 0
  br i1 %cmp, label %if.end53, label %if.end

if.end:                                           ; preds = %entry
  %ifs.i = getelementptr inbounds nuw i8, ptr %opaque, i64 136
  %unit.i = getelementptr inbounds nuw i8, ptr %opaque, i64 2128
  %2 = load i8, ptr %unit.i, align 8
  %idx.ext.i = zext i8 %2 to i64
  %add.ptr.i = getelementptr %struct.IDEState, ptr %ifs.i, i64 %idx.ext.i
  %and = and i32 %1, 32
  %cmp5.not = icmp eq i32 %and, 0
  store i32 0, ptr %error_status2, align 8
  %and7 = and i32 %1, 256
  %tobool.not = icmp eq i32 %and7, 0
  br i1 %tobool.not, label %if.else, label %if.then8

if.then8:                                         ; preds = %if.end
  %3 = load ptr, ptr %add.ptr.i, align 8
  %dma = getelementptr inbounds nuw i8, ptr %3, i64 2120
  %4 = load ptr, ptr %dma, align 8
  %5 = load ptr, ptr %4, align 8
  %restart = getelementptr inbounds nuw i8, ptr %5, i64 40
  %6 = load ptr, ptr %restart, align 8
  %tobool10.not = icmp eq ptr %6, null
  br i1 %tobool10.not, label %if.end53, label %if.then11

if.then11:                                        ; preds = %if.then8
  tail call void %6(ptr noundef nonnull %4) #17
  br label %if.end53

if.else:                                          ; preds = %if.end
  %and19 = and i32 %1, 8
  %tobool20.not = icmp eq i32 %and19, 0
  br i1 %tobool20.not, label %if.else28, label %if.then21

if.then21:                                        ; preds = %if.else
  %and22 = and i32 %1, 128
  %tobool23.not = icmp eq i32 %and22, 0
  br i1 %tobool23.not, label %if.else25, label %if.then24

if.then24:                                        ; preds = %if.then21
  tail call fastcc void @ide_restart_dma(ptr noundef %add.ptr.i, i32 noundef 2)
  br label %if.end53

if.else25:                                        ; preds = %if.then21
  %and.lobit = lshr exact i32 %and, 5
  %cond = xor i32 %and.lobit, 1
  tail call fastcc void @ide_restart_dma(ptr noundef %add.ptr.i, i32 noundef %cond)
  br label %if.end53

if.else28:                                        ; preds = %if.else
  %and29 = and i32 %1, 16
  %tobool30.not = icmp eq i32 %and29, 0
  br i1 %tobool30.not, label %if.else36, label %if.then31

if.then31:                                        ; preds = %if.else28
  br i1 %cmp5.not, label %if.else34, label %if.then33

if.then33:                                        ; preds = %if.then31
  tail call void @ide_sector_read(ptr noundef %add.ptr.i)
  br label %if.end53

if.else34:                                        ; preds = %if.then31
  tail call void @ide_sector_write(ptr noundef %add.ptr.i)
  br label %if.end53

if.else36:                                        ; preds = %if.else28
  %and37 = and i32 %1, 64
  %tobool38.not = icmp eq i32 %and37, 0
  br i1 %tobool38.not, label %if.else40, label %if.then39

if.then39:                                        ; preds = %if.else36
  tail call fastcc void @ide_flush_cache(ptr noundef %add.ptr.i)
  br label %if.end53

if.else40:                                        ; preds = %if.else36
  %and41 = and i32 %1, 160
  %cmp42 = icmp eq i32 %and41, 32
  br i1 %cmp42, label %if.then43, label %if.else48

if.then43:                                        ; preds = %if.else40
  %end_transfer_func = getelementptr inbounds nuw i8, ptr %add.ptr.i, i64 864
  %7 = load ptr, ptr %end_transfer_func, align 8
  %cmp44 = icmp eq ptr %7, @ide_atapi_cmd
  br i1 %cmp44, label %if.end47, label %if.else46

if.else46:                                        ; preds = %if.then43
  tail call void @__assert_fail(ptr noundef nonnull @.str.94, ptr noundef nonnull @.str.6, i32 noundef 2756, ptr noundef nonnull @__PRETTY_FUNCTION__.ide_restart_bh) #18
  unreachable

if.end47:                                         ; preds = %if.then43
  tail call void @ide_atapi_dma_restart(ptr noundef %add.ptr.i) #17
  br label %if.end53

if.else48:                                        ; preds = %if.else40
  tail call void @abort() #18
  unreachable

if.end53:                                         ; preds = %if.else25, %if.then24, %if.then39, %if.end47, %if.then33, %if.else34, %if.then8, %if.then11, %entry
  ret void
}